; Function Attrs: inlinehint mustprogress nounwind willreturn uwtable
define internal fastcc void @Vec_StrPutF(ptr noundef captures(none) %0, float noundef %1) unnamed_addr #2 {
  %3 = bitcast float %1 to i32
  %.sroa.0.0.extract.trunc = trunc i32 %3 to i8
  %4 = getelementptr inbounds nuw i8, ptr %0, i64 4
  %5 = load i32, ptr %4, align 4, !tbaa !3
  %6 = load i32, ptr %0, align 8, !tbaa !10
  %7 = icmp eq i32 %5, %6
  br i1 %7, label %8, label %.Vec_StrGrow.exit10_crit_edge.i

.Vec_StrGrow.exit10_crit_edge.i:                  ; preds = %2
  %.phi.trans.insert.i = getelementptr inbounds nuw i8, ptr %0, i64 8
  %.pre.i = load ptr, ptr %.phi.trans.insert.i, align 8, !tbaa !11
  br label %Vec_StrPush.exit

8:                                                ; preds = %2
  %9 = icmp slt i32 %5, 16
  br i1 %9, label %10, label %18

10:                                               ; preds = %8
  %11 = getelementptr inbounds nuw i8, ptr %0, i64 8
  %12 = load ptr, ptr %11, align 8, !tbaa !11
  %.not9.i.i = icmp eq ptr %12, null
  br i1 %.not9.i.i, label %15, label %13

13:                                               ; preds = %10
  %14 = tail call dereferenceable_or_null(16) ptr @realloc(ptr noundef nonnull %12, i64 noundef 16) #7
  br label %Vec_StrGrow.exit.i

15:                                               ; preds = %10
  %16 = tail call noalias dereferenceable_or_null(16) ptr @malloc(i64 noundef 16) #6
  br label %Vec_StrGrow.exit.i

Vec_StrGrow.exit.i:                               ; preds = %15, %13
  %17 = phi ptr [ %14, %13 ], [ %16, %15 ]
  store ptr %17, ptr %11, align 8, !tbaa !11
  store i32 16, ptr %0, align 8, !tbaa !10
  br label %Vec_StrPush.exit

18:                                               ; preds = %8
  %19 = shl nuw nsw i32 %5, 1
  %20 = getelementptr inbounds nuw i8, ptr %0, i64 8
  %21 = load ptr, ptr %20, align 8, !tbaa !11
  %.not9.i9.i = icmp eq ptr %21, null
  %22 = zext nneg i32 %19 to i64
  br i1 %.not9.i9.i, label %25, label %23

23:                                               ; preds = %18
  %24 = tail call ptr @realloc(ptr noundef nonnull %21, i64 noundef %22) #7
  br label %27

25:                                               ; preds = %18
  %26 = tail call noalias ptr @malloc(i64 noundef %22) #6
  br label %27

27:                                               ; preds = %25, %23
  %28 = phi ptr [ %24, %23 ], [ %26, %25 ]
  store ptr %28, ptr %20, align 8, !tbaa !11
  store i32 %19, ptr %0, align 8, !tbaa !10
  br label %Vec_StrPush.exit

Vec_StrPush.exit:                                 ; preds = %.Vec_StrGrow.exit10_crit_edge.i, %Vec_StrGrow.exit.i, %27
  %29 = phi ptr [ %.pre.i, %.Vec_StrGrow.exit10_crit_edge.i ], [ %28, %27 ], [ %17, %Vec_StrGrow.exit.i ]
  %30 = load i32, ptr %4, align 4, !tbaa !3
  %31 = add nsw i32 %30, 1
  store i32 %31, ptr %4, align 4, !tbaa !3
  %32 = sext i32 %30 to i64
  %33 = getelementptr inbounds i8, ptr %29, i64 %32
  store i8 %.sroa.0.0.extract.trunc, ptr %33, align 1, !tbaa !12
  %.sroa.0.1.extract.shift = lshr i32 %3, 8
  %.sroa.0.1.extract.trunc = trunc i32 %.sroa.0.1.extract.shift to i8
  %34 = load i32, ptr %4, align 4, !tbaa !3
  %35 = load i32, ptr %0, align 8, !tbaa !10
  %36 = icmp eq i32 %34, %35
  br i1 %36, label %37, label %.Vec_StrGrow.exit10_crit_edge.i5

.Vec_StrGrow.exit10_crit_edge.i5:                 ; preds = %Vec_StrPush.exit
  %.phi.trans.insert.i6 = getelementptr inbounds nuw i8, ptr %0, i64 8
  %.pre.i7 = load ptr, ptr %.phi.trans.insert.i6, align 8, !tbaa !11
  br label %Vec_StrPush.exit11

37:                                               ; preds = %Vec_StrPush.exit
  %38 = icmp slt i32 %34, 16
  br i1 %38, label %39, label %47

39:                                               ; preds = %37
  %40 = getelementptr inbounds nuw i8, ptr %0, i64 8
  %41 = load ptr, ptr %40, align 8, !tbaa !11
  %.not9.i.i9 = icmp eq ptr %41, null
  br i1 %.not9.i.i9, label %44, label %42

42:                                               ; preds = %39
  %43 = tail call dereferenceable_or_null(16) ptr @realloc(ptr noundef nonnull %41, i64 noundef 16) #7
  br label %Vec_StrGrow.exit.i10

44:                                               ; preds = %39
  %45 = tail call noalias dereferenceable_or_null(16) ptr @malloc(i64 noundef 16) #6
  br label %Vec_StrGrow.exit.i10

Vec_StrGrow.exit.i10:                             ; preds = %44, %42
  %46 = phi ptr [ %43, %42 ], [ %45, %44 ]
  store ptr %46, ptr %40, align 8, !tbaa !11
  store i32 16, ptr %0, align 8, !tbaa !10
  br label %Vec_StrPush.exit11

47:                                               ; preds = %37
  %48 = shl nuw nsw i32 %34, 1
  %49 = getelementptr inbounds nuw i8, ptr %0, i64 8
  %50 = load ptr, ptr %49, align 8, !tbaa !11
  %.not9.i9.i8 = icmp eq ptr %50, null
  %51 = zext nneg i32 %48 to i64
  br i1 %.not9.i9.i8, label %54, label %52

52:                                               ; preds = %47
  %53 = tail call ptr @realloc(ptr noundef nonnull %50, i64 noundef %51) #7
  br label %56

54:                                               ; preds = %47
  %55 = tail call noalias ptr @malloc(i64 noundef %51) #6
  br label %56

56:                                               ; preds = %54, %52
  %57 = phi ptr [ %53, %52 ], [ %55, %54 ]
  store ptr %57, ptr %49, align 8, !tbaa !11
  store i32 %48, ptr %0, align 8, !tbaa !10
  br label %Vec_StrPush.exit11

Vec_StrPush.exit11:                               ; preds = %.Vec_StrGrow.exit10_crit_edge.i5, %Vec_StrGrow.exit.i10, %56
  %58 = phi ptr [ %.pre.i7, %.Vec_StrGrow.exit10_crit_edge.i5 ], [ %57, %56 ], [ %46, %Vec_StrGrow.exit.i10 ]
  %59 = load i32, ptr %4, align 4, !tbaa !3
  %60 = add nsw i32 %59, 1
  store i32 %60, ptr %4, align 4, !tbaa !3
  %61 = sext i32 %59 to i64
  %62 = getelementptr inbounds i8, ptr %58, i64 %61
  store i8 %.sroa.0.1.extract.trunc, ptr %62, align 1, !tbaa !12
  %.sroa.0.2.extract.shift = lshr i32 %3, 16
  %.sroa.0.2.extract.trunc = trunc i32 %.sroa.0.2.extract.shift to i8
  %63 = load i32, ptr %4, align 4, !tbaa !3
  %64 = load i32, ptr %0, align 8, !tbaa !10
  %65 = icmp eq i32 %63, %64
  br i1 %65, label %66, label %.Vec_StrGrow.exit10_crit_edge.i12

.Vec_StrGrow.exit10_crit_edge.i12:                ; preds = %Vec_StrPush.exit11
  %.phi.trans.insert.i13 = getelementptr inbounds nuw i8, ptr %0, i64 8
  %.pre.i14 = load ptr, ptr %.phi.trans.insert.i13, align 8, !tbaa !11
  br label %Vec_StrPush.exit18

66:                                               ; preds = %Vec_StrPush.exit11
  %67 = icmp slt i32 %63, 16
  br i1 %67, label %68, label %76

68:                                               ; preds = %66
  %69 = getelementptr inbounds nuw i8, ptr %0, i64 8
  %70 = load ptr, ptr %69, align 8, !tbaa !11
  %.not9.i.i16 = icmp eq ptr %70, null
  br i1 %.not9.i.i16, label %73, label %71

71:                                               ; preds = %68
  %72 = tail call dereferenceable_or_null(16) ptr @realloc(ptr noundef nonnull %70, i64 noundef 16) #7
  br label %Vec_StrGrow.exit.i17

73:                                               ; preds = %68
  %74 = tail call noalias dereferenceable_or_null(16) ptr @malloc(i64 noundef 16) #6
  br label %Vec_StrGrow.exit.i17

Vec_StrGrow.exit.i17:                             ; preds = %73, %71
  %75 = phi ptr [ %72, %71 ], [ %74, %73 ]
  store ptr %75, ptr %69, align 8, !tbaa !11
  store i32 16, ptr %0, align 8, !tbaa !10
  br label %Vec_StrPush.exit18

76:                                               ; preds = %66
  %77 = shl nuw nsw i32 %63, 1
  %78 = getelementptr inbounds nuw i8, ptr %0, i64 8
  %79 = load ptr, ptr %78, align 8, !tbaa !11
  %.not9.i9.i15 = icmp eq ptr %79, null
  %80 = zext nneg i32 %77 to i64
  br i1 %.not9.i9.i15, label %83, label %81

81:                                               ; preds = %76
  %82 = tail call ptr @realloc(ptr noundef nonnull %79, i64 noundef %80) #7
  br label %85

83:                                               ; preds = %76
  %84 = tail call noalias ptr @malloc(i64 noundef %80) #6
  br label %85

85:                                               ; preds = %83, %81
  %86 = phi ptr [ %82, %81 ], [ %84, %83 ]
  store ptr %86, ptr %78, align 8, !tbaa !11
  store i32 %77, ptr %0, align 8, !tbaa !10
  br label %Vec_StrPush.exit18

Vec_StrPush.exit18:                               ; preds = %.Vec_StrGrow.exit10_crit_edge.i12, %Vec_StrGrow.exit.i17, %85
  %87 = phi ptr [ %.pre.i14, %.Vec_StrGrow.exit10_crit_edge.i12 ], [ %86, %85 ], [ %75, %Vec_StrGrow.exit.i17 ]
  %88 = load i32, ptr %4, align 4, !tbaa !3
  %89 = add nsw i32 %88, 1
  store i32 %89, ptr %4, align 4, !tbaa !3
  %90 = sext i32 %88 to i64
  %91 = getelementptr inbounds i8, ptr %87, i64 %90
  store i8 %.sroa.0.2.extract.trunc, ptr %91, align 1, !tbaa !12
  %92 = load i32, ptr %4, align 4, !tbaa !3
  %93 = load i32, ptr %0, align 8, !tbaa !10
  %94 = icmp eq i32 %92, %93
  br i1 %94, label %95, label %.Vec_StrGrow.exit10_crit_edge.i19

.Vec_StrGrow.exit10_crit_edge.i19:                ; preds = %Vec_StrPush.exit18
  %.phi.trans.insert.i20 = getelementptr inbounds nuw i8, ptr %0, i64 8
  %.pre.i21 = load ptr, ptr %.phi.trans.insert.i20, align 8, !tbaa !11
  br label %Vec_StrPush.exit25

95:                                               ; preds = %Vec_StrPush.exit18
  %96 = icmp slt i32 %92, 16
  br i1 %96, label %97, label %105

97:                                               ; preds = %95
  %98 = getelementptr inbounds nuw i8, ptr %0, i64 8
  %99 = load ptr, ptr %98, align 8, !tbaa !11
  %.not9.i.i23 = icmp eq ptr %99, null
  br i1 %.not9.i.i23, label %102, label %100

100:                                              ; preds = %97
  %101 = tail call dereferenceable_or_null(16) ptr @realloc(ptr noundef nonnull %99, i64 noundef 16) #7
  br label %Vec_StrGrow.exit.i24

102:                                              ; preds = %97
  %103 = tail call noalias dereferenceable_or_null(16) ptr @malloc(i64 noundef 16) #6
  br label %Vec_StrGrow.exit.i24

Vec_StrGrow.exit.i24:                             ; preds = %102, %100
  %104 = phi ptr [ %101, %100 ], [ %103, %102 ]
  store ptr %104, ptr %98, align 8, !tbaa !11
  store i32 16, ptr %0, align 8, !tbaa !10
  br label %Vec_StrPush.exit25

105:                                              ; preds = %95
  %106 = shl nuw nsw i32 %92, 1
  %107 = getelementptr inbounds nuw i8, ptr %0, i64 8
  %108 = load ptr, ptr %107, align 8, !tbaa !11
  %.not9.i9.i22 = icmp eq ptr %108, null
  %109 = zext nneg i32 %106 to i64
  br i1 %.not9.i9.i22, label %112, label %110

110:                                              ; preds = %105
  %111 = tail call ptr @realloc(ptr noundef nonnull %108, i64 noundef %109) #7
  br label %114

112:                                              ; preds = %105
  %113 = tail call noalias ptr @malloc(i64 noundef %109) #6
  br label %114

114:                                              ; preds = %112, %110
  %115 = phi ptr [ %111, %110 ], [ %113, %112 ]
  store ptr %115, ptr %107, align 8, !tbaa !11
  store i32 %106, ptr %0, align 8, !tbaa !10
  br label %Vec_StrPush.exit25

Vec_StrPush.exit25:                               ; preds = %.Vec_StrGrow.exit10_crit_edge.i19, %Vec_StrGrow.exit.i24, %114
  %116 = phi ptr [ %.pre.i21, %.Vec_StrGrow.exit10_crit_edge.i19 ], [ %115, %114 ], [ %104, %Vec_StrGrow.exit.i24 ]
  %.sroa.0.3.extract.shift = lshr i32 %3, 24
  %.sroa.0.3.extract.trunc = trunc nuw i32 %.sroa.0.3.extract.shift to i8
  %117 = load i32, ptr %4, align 4, !tbaa !3
  %118 = add nsw i32 %117, 1
  store i32 %118, ptr %4, align 4, !tbaa !3
  %119 = sext i32 %117 to i64
  %120 = getelementptr inbounds i8, ptr %116, i64 %119
  store i8 %.sroa.0.3.extract.trunc, ptr %120, align 1, !tbaa !12
  ret void
}